ccopy_reg
_reconstructor
p0
(cgoogle.oauth2.credentials
Credentials
p1
c__builtin__
object
p2
Ntp3
Rp4
(dp5
S'_quota_project_id'
p6
NsS'_token_uri'
p7
Vhttps://oauth2.googleapis.com/token
p8
sS'_scopes'
p9
(lp10
S'https://www.googleapis.com/auth/drive'
p11
aS'https://www.googleapis.com/auth/cloud-platform'
p12
aS'https://www.googleapis.com/auth/iam'
p13
asS'_default_scopes'
p14
NsS'expiry'
p15
cdatetime
datetime
p16
(S'\x07\xe5\x0b\x1b\x0813\x02\x90@'
p17
tp18
Rp19
sS'_enable_reauth_refresh'
p20
I00
sS'_refresh_token'
p21
V1//0ga7TaFoz8hKCCgYIARAAGBASNwF-L9IrwTCjc2awvpX4s-Xe7b59Vh61Ptdo0UntKxCyWBrTWyNH6tWfxuXnLY173TD8ozHQ5Ws
p22
sS'token'
p23
Vya29.a0ARrdaM_8XRugaQSa5LFYk6KbQFNyUitNKWNHgAxnIWAyyMdRupvLvUD78noJxqk6fkZ5AP1ghHfpz5X4iIpAXMTgYoWsL9avCjR3XuPbHW2YO1zptdyJLVrPlZF3BQbvpT3MRvlh2FtULzBohfHMNpHiEB05
p24
sS'_client_secret'
p25
VGOCSPX-Zw3u1eWHZjROPwvhd9WzSZbIrQ2j
p26
sS'_client_id'
p27
V38373199015-nshlf4imonbc60ef3hp9j21gu1un526c.apps.googleusercontent.com
p28
sS'_id_token'
p29
NsS'_rapt_token'
p30
Nsb.