ccopy_reg
_reconstructor
p0
(cgoogle.oauth2.credentials
Credentials
p1
c__builtin__
object
p2
Ntp3
Rp4
(dp5
S'_quota_project_id'
p6
NsS'_token_uri'
p7
Vhttps://oauth2.googleapis.com/token
p8
sS'_scopes'
p9
(lp10
S'https://www.googleapis.com/auth/drive'
p11
aS'https://www.googleapis.com/auth/cloud-platform'
p12
aS'https://www.googleapis.com/auth/iam'
p13
asS'_default_scopes'
p14
NsS'expiry'
p15
cdatetime
datetime
p16
(S'\x07\xe5\x0c\x05\x08%\x1f\x04\x88('
p17
tp18
Rp19
sS'_enable_reauth_refresh'
p20
I00
sS'_refresh_token'
p21
V1//0g180RqYV2K7CCgYIARAAGBASNwF-L9Ircy2EVnE-FiR1kMkAQfOeoYArhGzcskebffQpHYckHrE9yThmvB6IW3pYrbbdn9DHh7g
p22
sS'token'
p23
Vya29.a0ARrdaM8A4_PwudRFt2CKMUs4PVHuVij0ywUaV4FgeADVZq1NZmFGcx2LAZ2meBLzStxdpvqhYoZO0WxOsQnVq5P89xzvnMOcxc6bY-pwcLnpXQ9VOhqNQD3Evhb8BR9sUwBdgoc9XvYPqBrqgIfl_VRRvrJY
p24
sS'_client_secret'
p25
VGOCSPX-LMWcP5Qhpuxef6KapORjR1NmL8d1
p26
sS'_client_id'
p27
V754460000475-5gvirph3cmt5od16uqrrmn9ugbdb8olp.apps.googleusercontent.com
p28
sS'_id_token'
p29
NsS'_rapt_token'
p30
Nsb.